target datalayout = "e-m:e-p270:32:32-p271:32:32-p272:64:64-i64:64-i128:128-f80:128-n8:16:32:64-S128"
target triple = "x86_64-unknown-linux-gnu"

%struct.__va_list_tag = type { i32, i32, ptr, ptr }
%struct.File = type { ptr, i32, ptr, ptr, i32 }

@current_file = internal global ptr null, align 8

; Function Attrs: noreturn nounwind uwtable
define dso_local void @error_at(ptr noundef %loc, ptr noundef %fmt, ...) #0 {
entry:
  %loc.addr = alloca ptr, align 8
  %fmt.addr = alloca ptr, align 8
  %line_no = alloca i32, align 4
  %p = alloca ptr, align 8
  %ap = alloca [1 x %struct.__va_list_tag], align 16
  store ptr %loc, ptr %loc.addr, align 8
  store ptr %fmt, ptr %fmt.addr, align 8
  store i32 1, ptr %line_no, align 4
  %0 = load ptr, ptr @current_file, align 8
  %contents = getelementptr inbounds %struct.File, ptr %0, i32 0, i32 2
  %1 = load ptr, ptr %contents, align 8
  store ptr %1, ptr %p, align 8
  br label %for.cond

for.cond:                                         ; preds = %for.inc, %entry
  %2 = load ptr, ptr %p, align 8
  %3 = load ptr, ptr %loc.addr, align 8
  %cmp = icmp ult ptr %2, %3
  br i1 %cmp, label %for.body, label %for.end

for.body:                                         ; preds = %for.cond
  %4 = load ptr, ptr %p, align 8
  %5 = load i8, ptr %4, align 1
  %conv = sext i8 %5 to i32
  %cmp1 = icmp eq i32 %conv, 10
  br i1 %cmp1, label %if.then, label %if.end

if.then:                                          ; preds = %for.body
  %6 = load i32, ptr %line_no, align 4
  %inc = add nsw i32 %6, 1
  store i32 %inc, ptr %line_no, align 4
  br label %if.end

if.end:                                           ; preds = %if.then, %for.body
  br label %for.inc

for.inc:                                          ; preds = %if.end
  %7 = load ptr, ptr %p, align 8
  %incdec.ptr = getelementptr inbounds i8, ptr %7, i32 1
  store ptr %incdec.ptr, ptr %p, align 8
  br label %for.cond, !llvm.loop !7

for.end:                                          ; preds = %for.cond
  %arraydecay = getelementptr inbounds [1 x %struct.__va_list_tag], ptr %ap, i64 0, i64 0
  call void @llvm.va_start(ptr %arraydecay)
  %8 = load ptr, ptr @current_file, align 8
  %name = getelementptr inbounds %struct.File, ptr %8, i32 0, i32 0
  %9 = load ptr, ptr %name, align 8
  %10 = load ptr, ptr @current_file, align 8
  %contents3 = getelementptr inbounds %struct.File, ptr %10, i32 0, i32 2
  %11 = load ptr, ptr %contents3, align 8
  %12 = load i32, ptr %line_no, align 4
  %13 = load ptr, ptr %loc.addr, align 8
  %14 = load ptr, ptr %fmt.addr, align 8
  %arraydecay4 = getelementptr inbounds [1 x %struct.__va_list_tag], ptr %ap, i64 0, i64 0
  call void @verror_at(ptr noundef %9, ptr noundef %11, i32 noundef %12, ptr noundef %13, ptr noundef %14, ptr noundef %arraydecay4)
  call void @exit(i32 noundef 1) #11
  unreachable
}