; Function Attrs: noreturn nounwind uwtable
define dso_local void @error_at(ptr noundef %loc, ptr nocapture noundef readonly %fmt, ...) local_unnamed_addr #0 {
entry:
  %ap = alloca [1 x %struct.__va_list_tag], align 16
  %0 = load ptr, ptr @current_file, align 8
  %contents = getelementptr inbounds %struct.File, ptr %0, i64 0, i32 2
  %1 = load ptr, ptr %contents, align 8
  %cmp5 = icmp ult ptr %1, %loc
  br i1 %cmp5, label %for.body, label %for.end

for.body:                                         ; preds = %entry, %for.body
  %p.07 = phi ptr [ %incdec.ptr, %for.body ], [ %1, %entry ]
  %line_no.06 = phi i32 [ %spec.select, %for.body ], [ 1, %entry ]
  %2 = load i8, ptr %p.07, align 1
  %cmp1 = icmp eq i8 %2, 10
  %inc = zext i1 %cmp1 to i32
  %spec.select = add nuw nsw i32 %line_no.06, %inc
  %incdec.ptr = getelementptr inbounds i8, ptr %p.07, i64 1
  %exitcond.not = icmp eq ptr %incdec.ptr, %loc
  br i1 %exitcond.not, label %for.end, label %for.body, !llvm.loop !7

for.end:                                          ; preds = %for.body, %entry
  %line_no.0.lcssa = phi i32 [ 1, %entry ], [ %spec.select, %for.body ]
  call void @llvm.va_start(ptr nonnull %ap)
  %3 = load ptr, ptr %0, align 8
  %4 = load ptr, ptr %contents, align 8
  call fastcc void @verror_at(ptr noundef %3, ptr noundef %4, i32 noundef %line_no.0.lcssa, ptr noundef %loc, ptr noundef %fmt, ptr noundef nonnull %ap)
  call void @exit(i32 noundef 1) #24
  unreachable
}